Certificate:
    Data:
        Version: 3 (0x2)
        Serial Number: 1 (0x1)
    Signature Algorithm: md5WithRSAEncryption
        Issuer: C=ES, CN=CarDroid, L=Ciudad Real, O=UCLM, ST=Castilla-La Mancha/emailAddress=fcojavier.fernandezbravo.uclm@gmail.com, OU=ESI
        Validity
            Not Before: Jan 17 17:28:31 2015 GMT
            Not After : Jan 16 17:28:31 2020 GMT
        Subject: C=ES, CN=CarDroid, L=Ciudad Real, O=UCLM, ST=Castilla-La Mancha, OU=ESI
        Subject Public Key Info:
            Public Key Algorithm: rsaEncryption
                Public-Key: (1024 bit)
                Modulus:
                    00:ce:c6:ad:61:37:c1:c4:f7:3d:5f:07:6d:e3:da:
                    76:c6:70:c2:a7:b7:15:e0:bc:00:90:05:f4:76:6e:
                    ed:49:4c:5a:90:45:a6:b0:0a:9d:f4:22:ba:2d:d6:
                    54:4a:ee:a5:6f:bc:2e:fe:a9:20:7b:eb:1c:9a:79:
                    94:f4:7e:a5:bb:c8:8b:73:0e:db:0f:d6:d7:e0:4a:
                    29:a4:ae:10:a6:ee:64:17:99:04:19:4f:ba:e3:19:
                    ad:e0:a0:c8:cc:19:c2:95:2c:42:00:7e:f7:63:fa:
                    3f:84:f8:79:34:e9:72:d5:1b:b3:5f:cb:78:c6:76:
                    10:72:d3:ac:61:f5:8b:c6:09
                Exponent: 65537 (0x10001)
        X509v3 extensions:
            X509v3 Basic Constraints: 
                CA:FALSE
            X509v3 Subject Key Identifier: 
                9C:6A:1E:1E:7E:EB:C1:AC:A2:B2:25:70:67:86:D0:7B:FC:46:E2:73
            X509v3 Authority Key Identifier: 
                keyid:0C:35:64:8D:60:EC:0D:5D:72:5D:07:C5:7A:08:65:9C:AB:67:F2:C2
                DirName:/C=ES/CN=CarDroid/L=Ciudad Real/O=UCLM/ST=Castilla-La Mancha/emailAddress=fcojavier.fernandezbravo.uclm@gmail.com/OU=ESI
                serial:8C:E6:81:FC:38:8A:09:CE

    Signature Algorithm: md5WithRSAEncryption
         0e:b9:f4:25:5e:b3:29:2d:2b:94:90:f7:2d:ed:96:c7:44:b3:
         e0:38:37:f1:38:5c:8a:e5:63:aa:cd:b1:1d:a3:a6:c7:6b:1f:
         68:a9:2b:00:65:fe:71:97:a6:3a:e3:b1:10:00:34:fd:39:7a:
         ca:01:84:b5:b4:4f:4d:60:a1:54:42:12:ff:41:2a:da:e2:2e:
         55:d7:32:cd:82:5c:0a:3c:4f:6c:01:be:67:c8:cf:aa:61:ca:
         2c:f5:ab:da:ae:a0:6f:65:ed:47:3f:77:30:dc:3a:0f:39:b8:
         cb:8e:3d:c7:19:5a:94:e1:68:91:47:54:54:34:eb:a4:b4:d8:
         2b:df:62:45:77:4b:c0:b2:21:4a:f7:61:0d:63:b1:f1:0c:ca:
         01:0f:25:8e:18:58:72:fb:0a:6a:5c:61:a0:77:12:2a:01:94:
         90:6a:35:96:3f:12:eb:62:0b:2a:1f:24:52:57:68:dd:e4:f7:
         b6:85:29:0b:33:b0:f1:d3:70:55:f4:5a:f6:cd:5f:1d:5d:14:
         ba:fd:c2:7a:29:a9:b7:3d:7c:53:b5:3b:f5:5e:42:51:af:7c:
         b1:bf:63:e4:3e:10:b8:af:88:34:c9:ae:2a:cd:f7:44:7e:24:
         39:1b:09:ec:51:0e:47:77:39:ba:e7:7b:2b:84:f1:1e:11:e0:
         ee:4d:9a:64
-----BEGIN CERTIFICATE-----
MIIEIDCCAwigAwIBAgIBATANBgkqhkiG9w0BAQQFADCBqDELMAkGA1UEBhMCRVMx
ETAPBgNVBAMTCENhckRyb2lkMRQwEgYDVQQHEwtDaXVkYWQgUmVhbDENMAsGA1UE
ChMEVUNMTTEbMBkGA1UECBMSQ2FzdGlsbGEtTGEgTWFuY2hhMTYwNAYJKoZIhvcN
AQkBFidmY29qYXZpZXIuZmVybmFuZGV6YnJhdm8udWNsbUBnbWFpbC5jb20xDDAK
BgNVBAsTA0VTSTAeFw0xNTAxMTcxNzI4MzFaFw0yMDAxMTYxNzI4MzFaMHAxCzAJ
BgNVBAYTAkVTMREwDwYDVQQDEwhDYXJEcm9pZDEUMBIGA1UEBxMLQ2l1ZGFkIFJl
YWwxDTALBgNVBAoTBFVDTE0xGzAZBgNVBAgTEkNhc3RpbGxhLUxhIE1hbmNoYTEM
MAoGA1UECxMDRVNJMIGfMA0GCSqGSIb3DQEBAQUAA4GNADCBiQKBgQDOxq1hN8HE
9z1fB23j2nbGcMKntxXgvACQBfR2bu1JTFqQRaawCp30Irot1lRK7qVvvC7+qSB7
6xyaeZT0fqW7yItzDtsP1tfgSimkrhCm7mQXmQQZT7rjGa3goMjMGcKVLEIAfvdj
+j+E+Hk06XLVG7Nfy3jGdhBy06xh9YvGCQIDAQABo4IBDjCCAQowCQYDVR0TBAIw
ADAdBgNVHQ4EFgQUnGoeHn7rwayisiVwZ4bQe/xG4nMwgd0GA1UdIwSB1TCB0oAU
DDVkjWDsDV1yXQfFeghlnKtn8sKhga6kgaswgagxCzAJBgNVBAYTAkVTMREwDwYD
VQQDEwhDYXJEcm9pZDEUMBIGA1UEBxMLQ2l1ZGFkIFJlYWwxDTALBgNVBAoTBFVD
TE0xGzAZBgNVBAgTEkNhc3RpbGxhLUxhIE1hbmNoYTE2MDQGCSqGSIb3DQEJARYn
ZmNvamF2aWVyLmZlcm5hbmRlemJyYXZvLnVjbG1AZ21haWwuY29tMQwwCgYDVQQL
EwNFU0mCCQCM5oH8OIoJzjANBgkqhkiG9w0BAQQFAAOCAQEADrn0JV6zKS0rlJD3
Le2Wx0Sz4Dg38ThciuVjqs2xHaOmx2sfaKkrAGX+cZemOuOxEAA0/Tl6ygGEtbRP
TWChVEIS/0Eq2uIuVdcyzYJcCjxPbAG+Z8jPqmHKLPWr2q6gb2XtRz93MNw6Dzm4
y449xxlalOFokUdUVDTrpLTYK99iRXdLwLIhSvdhDWOx8QzKAQ8ljhhYcvsKalxh
oHcSKgGUkGo1lj8S62ILKh8kUldo3eT3toUpCzOw8dNwVfRa9s1fHV0Uuv3Ceimp
tz18U7U79V5CUa98sb9j5D4QuK+INMmuKs33RH4kORsJ7FEOR3c5uud7K4TxHhHg
7k2aZA==
-----END CERTIFICATE-----
